target datalayout = "e-m:e-p270:32:32-p271:32:32-p272:64:64-i64:64-i128:128-f80:128-n8:16:32:64-S128"
target triple = "x86_64-pc-linux-gnu"

%"class.rocksdb::HistogramBucketMapper" = type { %"class.std::vector", i64, i64 }
%"class.std::vector" = type { %"struct.std::_Vector_base" }
%"struct.std::_Vector_base" = type { %"struct.std::_Vector_base<unsigned long, std::allocator<unsigned long>>::_Vector_impl" }
%"struct.std::_Vector_base<unsigned long, std::allocator<unsigned long>>::_Vector_impl" = type { %"struct.std::_Vector_base<unsigned long, std::allocator<unsigned long>>::_Vector_impl_data" }
%"struct.std::_Vector_base<unsigned long, std::allocator<unsigned long>>::_Vector_impl_data" = type { ptr, ptr, ptr }
%"struct.rocksdb::HistogramStat" = type { %"struct.std::atomic", %"struct.std::atomic", %"struct.std::atomic", %"struct.std::atomic", %"struct.std::atomic", [109 x %"struct.std::atomic"], i64 }
%"struct.std::atomic" = type { %"struct.std::__atomic_base" }
%"struct.std::__atomic_base" = type { i64 }

@_ZN7rocksdb12_GLOBAL__N_112bucketMapperE = internal global %"class.rocksdb::HistogramBucketMapper" zeroinitializer, align 8

; Function Attrs: mustprogress nounwind uwtable
define linkonce_odr noundef i32 @_ZStanSt12memory_orderSt23__memory_order_modifier(i32 noundef %0, i32 noundef %1) #1 comdat {
  %3 = alloca i32, align 4
  %4 = alloca i32, align 4
  store i32 %0, ptr %3, align 4, !tbaa !46
  store i32 %1, ptr %4, align 4, !tbaa !106
  %5 = load i32, ptr %3, align 4, !tbaa !46
  %6 = load i32, ptr %4, align 4, !tbaa !106
  %7 = and i32 %5, %6
  ret i32 %7
}

; Function Attrs: alwaysinline mustprogress nounwind uwtable
define linkonce_odr void @_ZNSt13__atomic_baseImE5storeEmSt12memory_order(ptr noundef nonnull align 8 dereferenceable(8) %0, i64 noundef %1, i32 noundef %2) #8 comdat align 2 {
  %4 = alloca ptr, align 8
  %5 = alloca i64, align 8
  %6 = alloca i32, align 4
  %7 = alloca i32, align 4
  %8 = alloca i64, align 8
  store ptr %0, ptr %4, align 8, !tbaa !44
  store i64 %1, ptr %5, align 8, !tbaa !9
  store i32 %2, ptr %6, align 4, !tbaa !46
  %9 = load ptr, ptr %4, align 8
  call void @llvm.lifetime.start.p0(i64 4, ptr %7) #7
  %10 = load i32, ptr %6, align 4, !tbaa !46
  %11 = call noundef i32 @_ZStanSt12memory_orderSt23__memory_order_modifier(i32 noundef %10, i32 noundef 65535)
  store i32 %11, ptr %7, align 4, !tbaa !46
  br label %12

12:                                               ; preds = %3
  br label %13

13:                                               ; preds = %12
  br label %14

14:                                               ; preds = %13
  br label %15

15:                                               ; preds = %14
  br label %16

16:                                               ; preds = %15
  br label %17

17:                                               ; preds = %16
  br label %18

18:                                               ; preds = %17
  br label %19

19:                                               ; preds = %18
  br label %20

20:                                               ; preds = %19
  %21 = getelementptr inbounds nuw %"struct.std::__atomic_base", ptr %9, i32 0, i32 0
  %22 = load i32, ptr %6, align 4, !tbaa !46
  %23 = load i64, ptr %5, align 8, !tbaa !9
  store i64 %23, ptr %8, align 8, !tbaa !9
  switch i32 %22, label %24 [
    i32 3, label %26
    i32 5, label %28
  ]

24:                                               ; preds = %20
  %25 = load i64, ptr %8, align 8
  store atomic i64 %25, ptr %21 monotonic, align 8
  br label %30

26:                                               ; preds = %20
  %27 = load i64, ptr %8, align 8
  store atomic i64 %27, ptr %21 release, align 8
  br label %30

28:                                               ; preds = %20
  %29 = load i64, ptr %8, align 8
  store atomic i64 %29, ptr %21 seq_cst, align 8
  br label %30

30:                                               ; preds = %28, %26, %24
  call void @llvm.lifetime.end.p0(i64 4, ptr %7) #7
  ret void
}

; Function Attrs: mustprogress nounwind uwtable
define linkonce_odr noundef i64 @_ZNK7rocksdb21HistogramBucketMapper9LastValueEv(ptr noundef nonnull align 8 dereferenceable(40) %0) #1 comdat align 2 {
  %2 = alloca ptr, align 8
  store ptr %0, ptr %2, align 8, !tbaa !4
  %3 = load ptr, ptr %2, align 8
  %4 = getelementptr inbounds nuw %"class.rocksdb::HistogramBucketMapper", ptr %3, i32 0, i32 1
  %5 = load i64, ptr %4, align 8, !tbaa !20
  ret i64 %5
}

; Function Attrs: mustprogress uwtable
define void @_ZN7rocksdb13HistogramStat5ClearEv(ptr noundef nonnull align 8 dereferenceable(920) %0) #0 align 2 {
  %2 = alloca ptr, align 8
  %3 = alloca i32, align 4
  store ptr %0, ptr %2, align 8, !tbaa !35
  %4 = load ptr, ptr %2, align 8
  %5 = getelementptr inbounds nuw %"struct.rocksdb::HistogramStat", ptr %4, i32 0, i32 0
  %6 = call noundef i64 @_ZNK7rocksdb21HistogramBucketMapper9LastValueEv(ptr noundef nonnull align 8 dereferenceable(40) @_ZN7rocksdb12_GLOBAL__N_112bucketMapperE)
  call void @_ZNSt13__atomic_baseImE5storeEmSt12memory_order(ptr noundef nonnull align 8 dereferenceable(8) %5, i64 noundef %6, i32 noundef 0) #7
  %7 = getelementptr inbounds nuw %"struct.rocksdb::HistogramStat", ptr %4, i32 0, i32 1
  call void @_ZNSt13__atomic_baseImE5storeEmSt12memory_order(ptr noundef nonnull align 8 dereferenceable(8) %7, i64 noundef 0, i32 noundef 0) #7
  %8 = getelementptr inbounds nuw %"struct.rocksdb::HistogramStat", ptr %4, i32 0, i32 2
  call void @_ZNSt13__atomic_baseImE5storeEmSt12memory_order(ptr noundef nonnull align 8 dereferenceable(8) %8, i64 noundef 0, i32 noundef 0) #7
  %9 = getelementptr inbounds nuw %"struct.rocksdb::HistogramStat", ptr %4, i32 0, i32 3
  call void @_ZNSt13__atomic_baseImE5storeEmSt12memory_order(ptr noundef nonnull align 8 dereferenceable(8) %9, i64 noundef 0, i32 noundef 0) #7
  %10 = getelementptr inbounds nuw %"struct.rocksdb::HistogramStat", ptr %4, i32 0, i32 4
  call void @_ZNSt13__atomic_baseImE5storeEmSt12memory_order(ptr noundef nonnull align 8 dereferenceable(8) %10, i64 noundef 0, i32 noundef 0) #7
  call void @llvm.lifetime.start.p0(i64 4, ptr %3) #7
  store i32 0, ptr %3, align 4, !tbaa !41
  br label %11

11:                                               ; preds = %23, %1
  %12 = load i32, ptr %3, align 4, !tbaa !41
  %13 = zext i32 %12 to i64
  %14 = getelementptr inbounds nuw %"struct.rocksdb::HistogramStat", ptr %4, i32 0, i32 6
  %15 = load i64, ptr %14, align 8, !tbaa !37
  %16 = icmp ult i64 %13, %15
  br i1 %16, label %18, label %17

17:                                               ; preds = %11
  call void @llvm.lifetime.end.p0(i64 4, ptr %3) #7
  br label %26

18:                                               ; preds = %11
  %19 = getelementptr inbounds nuw %"struct.rocksdb::HistogramStat", ptr %4, i32 0, i32 5
  %20 = load i32, ptr %3, align 4, !tbaa !41
  %21 = zext i32 %20 to i64
  %22 = getelementptr inbounds nuw [109 x %"struct.std::atomic"], ptr %19, i64 0, i64 %21
  call void @_ZNSt13__atomic_baseImE5storeEmSt12memory_order(ptr noundef nonnull align 8 dereferenceable(8) %22, i64 noundef 0, i32 noundef 0) #7
  br label %23

23:                                               ; preds = %18
  %24 = load i32, ptr %3, align 4, !tbaa !41
  %25 = add i32 %24, 1
  store i32 %25, ptr %3, align 4, !tbaa !41
  br label %11, !llvm.loop !43

26:                                               ; preds = %17
  ret void
}