; Function Attrs: mustprogress nofree norecurse nounwind memory(read, argmem: readwrite, inaccessiblemem: none) uwtable
define void @_ZN7rocksdb13HistogramStat5ClearEv(ptr noundef nonnull align 8 captures(none) dereferenceable(920) %0) local_unnamed_addr #5 align 2 {
  %2 = load i64, ptr getelementptr inbounds nuw (i8, ptr @_ZN7rocksdb12_GLOBAL__N_112bucketMapperE, i64 24), align 8, !tbaa !18
  store atomic i64 %2, ptr %0 monotonic, align 8
  %3 = getelementptr inbounds nuw i8, ptr %0, i64 8
  store atomic i64 0, ptr %3 monotonic, align 8
  %4 = getelementptr inbounds nuw i8, ptr %0, i64 16
  store atomic i64 0, ptr %4 monotonic, align 8
  %5 = getelementptr inbounds nuw i8, ptr %0, i64 24
  store atomic i64 0, ptr %5 monotonic, align 8
  %6 = getelementptr inbounds nuw i8, ptr %0, i64 32
  store atomic i64 0, ptr %6 monotonic, align 8
  %7 = getelementptr inbounds nuw i8, ptr %0, i64 912
  %8 = load i64, ptr %7, align 8, !tbaa !25
  %.not = icmp eq i64 %8, 0
  br i1 %.not, label %._crit_edge, label %.lr.ph

.lr.ph:                                           ; preds = %1
  %9 = getelementptr inbounds nuw i8, ptr %0, i64 40
  br label %10

._crit_edge:                                      ; preds = %10, %1
  ret void

10:                                               ; preds = %.lr.ph, %10
  %11 = phi i64 [ 0, %.lr.ph ], [ %14, %10 ]
  %.04 = phi i32 [ 0, %.lr.ph ], [ %13, %10 ]
  %12 = getelementptr inbounds nuw [109 x %"struct.std::atomic"], ptr %9, i64 0, i64 %11
  store atomic i64 0, ptr %12 monotonic, align 8
  %13 = add i32 %.04, 1
  %14 = zext i32 %13 to i64
  %15 = load i64, ptr %7, align 8, !tbaa !25
  %16 = icmp ugt i64 %15, %14
  br i1 %16, label %10, label %._crit_edge, !llvm.loop !29
}